Certificate:
    Data:
        Version: 3 (0x2)
        Serial Number: 91 (0x5b)
    Signature Algorithm: sha1WithRSAEncryption
        Issuer: C=US, ST=Pennsylvania, L=Pittsburgh, O=CMU, OU=15-441, CN=15-441 CMU CA/emailAddress=staf-441@cs.cmu.edu
        Validity
            Not Before: Oct  6 14:25:25 2016 GMT
            Not After : Oct  6 14:25:25 2017 GMT
        Subject: C=US, ST=Pennsylvania, L=Pittsburgh, O=yangjuns Corp., OU=yangjuns Organizational Unit, CN=yangjuns.hopto.org/emailAddress=yangjuns@andrew.cmu.edu
        Subject Public Key Info:
            Public Key Algorithm: rsaEncryption
                Public-Key: (4096 bit)
                Modulus:
                    00:cc:1a:6a:e4:f7:8f:f5:b1:15:ee:1b:0d:21:8e:
                    88:d2:94:1e:64:30:9e:20:e0:b0:25:28:dd:42:3f:
                    ed:44:aa:f3:4f:57:f0:e1:24:55:72:95:9b:3e:b9:
                    c6:46:95:32:9c:74:15:1b:a0:68:87:cd:15:10:39:
                    8d:74:c9:7f:8f:17:c4:72:96:ba:d9:bc:2e:f8:f8:
                    16:0f:a0:bb:14:74:80:52:59:6c:97:33:c2:02:c0:
                    e0:ac:df:a9:48:49:56:86:21:16:90:fe:30:0b:77:
                    f5:5a:aa:56:87:3f:66:cb:80:bf:70:b6:cd:a5:88:
                    4b:db:26:26:71:64:81:6a:80:40:3d:1a:82:4b:c0:
                    e7:a6:ce:24:38:51:74:9d:1a:14:f4:2b:58:15:1a:
                    ca:a8:7e:b9:6e:83:6e:06:37:9d:c9:18:96:0b:35:
                    13:1f:34:7d:99:25:9c:fc:28:87:99:41:1d:cf:ec:
                    22:0f:38:7e:1f:65:09:0a:36:f1:d1:5f:cb:12:0d:
                    11:3e:3a:e1:c3:c3:6c:0f:15:6a:59:ea:fe:6f:55:
                    9c:06:f7:cc:7b:35:91:79:eb:5f:46:c3:e6:aa:1b:
                    6b:d1:b9:49:d2:32:df:40:5b:d3:f2:71:71:4f:51:
                    2b:69:40:f4:02:5e:ea:40:f3:2f:19:35:1e:2c:7f:
                    7f:d6:bb:4d:bc:34:42:c1:92:87:40:24:53:38:6b:
                    06:4d:90:39:a5:93:d8:b3:3e:1f:b6:16:89:88:c7:
                    d0:8e:96:35:d9:5e:d5:dd:39:dd:39:dd:18:1f:a5:
                    bd:3e:ef:80:06:c4:d2:98:dd:16:e6:64:25:d7:3a:
                    6f:51:04:9b:c8:49:60:44:0a:b7:2a:43:69:25:5b:
                    60:ad:fe:44:8c:04:d7:40:5b:04:e9:b6:a9:a0:1c:
                    5e:b1:76:30:ef:d1:f0:95:c9:19:1c:a4:d9:57:33:
                    a3:1f:6c:96:5d:86:43:c7:b2:46:11:cf:59:f4:2c:
                    15:fc:46:a2:22:60:81:e6:b4:58:aa:3f:36:e1:5b:
                    15:68:28:17:d2:06:16:21:5d:59:f8:01:8d:d4:37:
                    4f:e7:aa:75:6b:cb:59:81:1b:08:13:fb:69:a4:b2:
                    d7:f0:26:f1:0b:42:2d:16:1e:95:9c:46:89:9f:a9:
                    0d:36:c4:7e:ac:4e:21:8e:bf:bf:dd:05:55:2b:e2:
                    c2:19:dd:52:bd:cf:72:fe:d6:c5:65:2f:6e:9a:32:
                    ac:e8:38:d1:e6:cf:e2:40:1d:6b:a8:74:65:8d:e5:
                    7f:52:06:28:c3:10:6c:fd:f8:66:66:68:a2:bb:dd:
                    9b:80:1a:f9:84:86:30:fa:a0:6f:5d:56:7a:8a:30:
                    e4:5e:6b
                Exponent: 65537 (0x10001)
        X509v3 extensions:
            X509v3 Basic Constraints: 
                CA:FALSE
            Netscape Comment: 
                15-441 CMU CA OpenSSL Generated Certificate
            X509v3 Subject Key Identifier: 
                1C:ED:E6:3C:7E:FA:09:55:50:D2:A1:61:91:AA:A8:D8:F2:AA:30:CB
            X509v3 Authority Key Identifier: 
                keyid:88:A4:AA:5C:48:64:CD:34:1B:FD:9F:69:F6:43:49:25:A4:52:C2:E1

    Signature Algorithm: sha1WithRSAEncryption
         87:ac:03:88:cc:69:f9:a0:58:be:65:d4:b4:bf:c5:44:5c:18:
         92:40:57:66:f7:7b:2a:fa:0a:58:aa:3f:28:a0:3c:0f:dc:fa:
         9c:ce:1d:25:8a:ea:97:6a:3d:44:fc:7c:0c:93:99:d7:df:b9:
         b0:47:cf:62:f4:e0:b4:30:0d:f0:80:1b:26:8a:af:84:a2:27:
         98:01:8b:bf:2e:c2:34:01:b6:f4:92:b8:f2:af:a2:6d:19:0d:
         c6:9d:25:5f:08:f6:2c:2a:b0:0b:a8:8b:18:d9:07:90:8c:51:
         59:e3:b9:25:90:7a:f4:d9:85:41:18:fd:32:be:e0:3d:a1:82:
         a2:38:25:29:a9:15:14:b4:32:ee:42:24:a7:54:bb:af:a0:52:
         41:f1:b4:a5:52:6f:bd:60:18:e3:9e:6d:92:1d:5b:fd:cc:79:
         13:3d:b8:11:87:c3:b2:22:6c:e0:e4:4f:ff:16:d5:4e:87:28:
         7e:58:ca:15:3c:27:6a:aa:5c:84:8a:1a:af:4a:8d:91:18:1c:
         42:39:d1:97:7d:d9:1f:b7:29:a8:05:ea:ad:63:b2:85:c7:4a:
         10:83:a9:f8:5f:f0:f2:f7:57:7c:17:14:87:1d:ff:38:28:f9:
         78:69:2a:9c:2f:ad:c9:2d:03:7d:77:6e:19:59:f9:53:bc:ad:
         92:c9:01:b7:c4:58:48:b0:e1:75:6f:4c:52:45:2c:a2:b3:2a:
         09:25:27:8e:46:bc:8a:51:ca:f4:03:4d:12:8d:3f:9d:6b:8a:
         ec:b6:67:84:f8:53:d4:dd:81:81:1b:16:52:6b:26:e7:45:fe:
         b1:51:51:f0:22:54:04:76:75:d7:a0:e1:85:93:d3:e9:80:cb:
         91:0a:eb:5f:b7:fa:f8:15:11:84:11:56:83:e5:3d:09:63:06:
         63:6b:b3:85:3e:64:bf:e8:18:6e:d4:83:d0:5a:19:9e:fe:4c:
         86:8b:ac:1d:84:62:b8:7b:86:8b:34:fc:2d:c5:ff:23:36:27:
         11:6e:c1:b1:e2:52:0e:d6:e8:1c:a8:60:0d:1f:81:69:b4:a2:
         09:2e:14:75:3d:d3:8c:66:64:3f:dd:9d:99:b5:76:f0:fe:6c:
         f4:77:f0:6d:7a:70:43:67:81:d9:82:c2:a8:03:4b:c6:3d:6a:
         e2:9c:5d:e5:2f:88:76:a8:7c:9e:34:7c:70:f3:b1:5d:85:40:
         22:3c:45:ec:bf:b3:f1:84:73:2e:b7:17:cd:93:d2:bb:50:34:
         c1:21:ce:59:58:dd:5a:9f:ae:48:b7:51:e6:3c:dc:f7:0d:77:
         68:05:78:56:f8:93:c7:ca:05:07:2b:97:67:8c:31:0a:e3:00:
         a0:48:8f:d1:a0:50:aa:1d
-----BEGIN CERTIFICATE-----
MIIGWjCCBEKgAwIBAgIBWzANBgkqhkiG9w0BAQUFADCBlDELMAkGA1UEBhMCVVMx
FTATBgNVBAgTDFBlbm5zeWx2YW5pYTETMBEGA1UEBxMKUGl0dHNidXJnaDEMMAoG
A1UEChMDQ01VMQ8wDQYDVQQLEwYxNS00NDExFjAUBgNVBAMTDTE1LTQ0MSBDTVUg
Q0ExIjAgBgkqhkiG9w0BCQEWE3N0YWYtNDQxQGNzLmNtdS5lZHUwHhcNMTYxMDA2
MTQyNTI1WhcNMTcxMDA2MTQyNTI1WjCBvjELMAkGA1UEBhMCVVMxFTATBgNVBAgT
DFBlbm5zeWx2YW5pYTETMBEGA1UEBxMKUGl0dHNidXJnaDEXMBUGA1UEChMOeWFu
Z2p1bnMgQ29ycC4xJTAjBgNVBAsTHHlhbmdqdW5zIE9yZ2FuaXphdGlvbmFsIFVu
aXQxGzAZBgNVBAMTEnlhbmdqdW5zLmhvcHRvLm9yZzEmMCQGCSqGSIb3DQEJARYX
eWFuZ2p1bnNAYW5kcmV3LmNtdS5lZHUwggIiMA0GCSqGSIb3DQEBAQUAA4ICDwAw
ggIKAoICAQDMGmrk94/1sRXuGw0hjojSlB5kMJ4g4LAlKN1CP+1EqvNPV/DhJFVy
lZs+ucZGlTKcdBUboGiHzRUQOY10yX+PF8RylrrZvC74+BYPoLsUdIBSWWyXM8IC
wOCs36lISVaGIRaQ/jALd/VaqlaHP2bLgL9wts2liEvbJiZxZIFqgEA9GoJLwOem
ziQ4UXSdGhT0K1gVGsqofrlug24GN53JGJYLNRMfNH2ZJZz8KIeZQR3P7CIPOH4f
ZQkKNvHRX8sSDRE+OuHDw2wPFWpZ6v5vVZwG98x7NZF5619Gw+aqG2vRuUnSMt9A
W9PycXFPUStpQPQCXupA8y8ZNR4sf3/Wu028NELBkodAJFM4awZNkDmlk9izPh+2
FomIx9COljXZXtXdOd053Rgfpb0+74AGxNKY3RbmZCXXOm9RBJvISWBECrcqQ2kl
W2Ct/kSMBNdAWwTptqmgHF6xdjDv0fCVyRkcpNlXM6MfbJZdhkPHskYRz1n0LBX8
RqIiYIHmtFiqPzbhWxVoKBfSBhYhXVn4AY3UN0/nqnVry1mBGwgT+2mkstfwJvEL
Qi0WHpWcRomfqQ02xH6sTiGOv7/dBVUr4sIZ3VK9z3L+1sVlL26aMqzoONHmz+JA
HWuodGWN5X9SBijDEGz9+GZmaKK73ZuAGvmEhjD6oG9dVnqKMOReawIDAQABo4GK
MIGHMAkGA1UdEwQCMAAwOgYJYIZIAYb4QgENBC0WKzE1LTQ0MSBDTVUgQ0EgT3Bl
blNTTCBHZW5lcmF0ZWQgQ2VydGlmaWNhdGUwHQYDVR0OBBYEFBzt5jx++glVUNKh
YZGqqNjyqjDLMB8GA1UdIwQYMBaAFIikqlxIZM00G/2fafZDSSWkUsLhMA0GCSqG
SIb3DQEBBQUAA4ICAQCHrAOIzGn5oFi+ZdS0v8VEXBiSQFdm93sq+gpYqj8ooDwP
3Pqczh0liuqXaj1E/HwMk5nX37mwR89i9OC0MA3wgBsmiq+EoieYAYu/LsI0Abb0
krjyr6JtGQ3GnSVfCPYsKrALqIsY2QeQjFFZ47klkHr02YVBGP0yvuA9oYKiOCUp
qRUUtDLuQiSnVLuvoFJB8bSlUm+9YBjjnm2SHVv9zHkTPbgRh8OyImzg5E//FtVO
hyh+WMoVPCdqqlyEihqvSo2RGBxCOdGXfdkftymoBeqtY7KFx0oQg6n4X/Dy91d8
FxSHHf84KPl4aSqcL63JLQN9d24ZWflTvK2SyQG3xFhIsOF1b0xSRSyisyoJJSeO
RryKUcr0A00SjT+da4rstmeE+FPU3YGBGxZSaybnRf6xUVHwIlQEdnXXoOGFk9Pp
gMuRCutft/r4FRGEEVaD5T0JYwZja7OFPmS/6Bhu1IPQWhme/kyGi6wdhGK4e4aL
NPwtxf8jNicRbsGx4lIO1ugcqGANH4FptKIJLhR1PdOMZmQ/3Z2ZtXbw/mz0d/Bt
enBDZ4HZgsKoA0vGPWrinF3lL4h2qHyeNHxw87FdhUAiPEXsv7PxhHMutxfNk9K7
UDTBIc5ZWN1an65It1HmPNz3DXdoBXhW+JPHygUHK5dnjDEK4wCgSI/RoFCqHQ==
-----END CERTIFICATE-----
